; Function Attrs: inlinehint mustprogress uwtable
define internal void @"_ZZ14cmUVStreamReadIZ23cmExecuteProcessCommandRKSt6vectorINSt7__cxx1112basic_stringIcSt11char_traitsIcESaIcEEESaIS6_EER17cmExecutionStatusE3$_1Z23cmExecuteProcessCommandSA_SC_E3$_2ESt10unique_ptrI20cmUVStreamReadHandleSt14default_deleteISG_EEP11uv_stream_sT_T0_ENUlP11uv_handle_smP8uv_buf_tE_8__invokeESP_mSR_"(ptr noundef readonly captures(none) %0, i64 noundef %1, ptr noundef writeonly captures(none) initializes((0, 16)) %2) #9 align 2 {
  %.val = load ptr, ptr %0, align 8, !tbaa !286
  tail call void @_ZNSt6vectorIcSaIcEE6resizeEm(ptr noundef nonnull align 8 dereferenceable(24) %.val, i64 noundef %1)
  %4 = load ptr, ptr %.val, align 8, !tbaa !114
  store ptr %4, ptr %2, align 8, !tbaa !288
  %5 = getelementptr inbounds nuw i8, ptr %2, i64 8
  store i64 %1, ptr %5, align 8, !tbaa !290
  ret void
}